target datalayout = "e-m:e-p270:32:32-p271:32:32-p272:64:64-i64:64-i128:128-f80:128-n8:16:32:64-S128"
target triple = "x86_64-pc-linux-gnu"

%"class.std::__cxx11::basic_string" = type { %"struct.std::__cxx11::basic_string<char>::_Alloc_hider", i64, %union.anon }
%"struct.std::__cxx11::basic_string<char>::_Alloc_hider" = type { ptr }
%union.anon = type { i64, [8 x i8] }
%class.V3Number = type { %class.V3NumberData, ptr, ptr }
%class.V3NumberData = type <{ %union.anon.0, i32, i8, i8, [2 x i8] }>
%union.anon.0 = type { %"class.std::__cxx11::basic_string" }
%class.V3ErrorCode = type { i8 }

@.str.15 = private unnamed_addr constant [114 x i8] c"generated/home/dtcxzyw/WorkSpace/Projects/compilers/llvm-opt-benchmark/bench/verilator/verilator/src/V3Number.cpp\00", align 1
@.str.51 = private unnamed_addr constant [50 x i8] c"Number operation called with same source and dest\00", align 1
@.str.52 = private unnamed_addr constant [70 x i8] c"Number operation called with non-logic (double or string) argument: '\00", align 1

; Function Attrs: mustprogress nounwind uwtable
define linkonce_odr dso_local noundef ptr @_ZNK8V3Number8filelineEv(ptr noundef nonnull align 8 dereferenceable(56) %0) #7 comdat align 2 {
  %2 = alloca ptr, align 8
  store ptr %0, ptr %2, align 8, !tbaa !4
  %3 = load ptr, ptr %2, align 8
  %4 = getelementptr inbounds nuw %class.V3Number, ptr %3, i32 0, i32 2
  %5 = load ptr, ptr %4, align 8, !tbaa !19
  ret ptr %5
}

; Function Attrs: mustprogress nounwind uwtable
define linkonce_odr dso_local void @_ZN12V3NumberDataC2Ev(ptr noundef nonnull align 8 dereferenceable(40) %0) unnamed_addr #7 comdat align 2 {
  %2 = alloca ptr, align 8
  store ptr %0, ptr %2, align 8, !tbaa !42
  %3 = load ptr, ptr %2, align 8
  %4 = getelementptr inbounds nuw %class.V3NumberData, ptr %3, i32 0, i32 1
  store i32 0, ptr %4, align 8, !tbaa !44
  %5 = getelementptr inbounds nuw %class.V3NumberData, ptr %3, i32 0, i32 2
  store i8 0, ptr %5, align 4, !tbaa !45
  %6 = getelementptr inbounds nuw %class.V3NumberData, ptr %3, i32 0, i32 3
  %7 = load i8, ptr %6, align 1
  %8 = and i8 %7, -2
  %9 = or i8 %8, 0
  store i8 %9, ptr %6, align 1
  %10 = getelementptr inbounds nuw %class.V3NumberData, ptr %3, i32 0, i32 3
  %11 = load i8, ptr %10, align 1
  %12 = and i8 %11, -3
  %13 = or i8 %12, 0
  store i8 %13, ptr %10, align 1
  %14 = getelementptr inbounds nuw %class.V3NumberData, ptr %3, i32 0, i32 3
  %15 = load i8, ptr %14, align 1
  %16 = and i8 %15, -5
  %17 = or i8 %16, 0
  store i8 %17, ptr %14, align 1
  %18 = getelementptr inbounds nuw %class.V3NumberData, ptr %3, i32 0, i32 3
  %19 = load i8, ptr %18, align 1
  %20 = and i8 %19, -9
  %21 = or i8 %20, 0
  store i8 %21, ptr %18, align 1
  %22 = getelementptr inbounds nuw %class.V3NumberData, ptr %3, i32 0, i32 3
  %23 = load i8, ptr %22, align 1
  %24 = and i8 %23, -17
  %25 = or i8 %24, 0
  store i8 %25, ptr %22, align 1
  %26 = getelementptr inbounds nuw %class.V3NumberData, ptr %3, i32 0, i32 3
  %27 = load i8, ptr %26, align 1
  %28 = and i8 %27, -33
  %29 = or i8 %28, 0
  store i8 %29, ptr %26, align 1
  ret void
}

; Function Attrs: mustprogress nounwind uwtable
define linkonce_odr dso_local noundef i32 @_ZNK12V3NumberData5widthEv(ptr noundef nonnull align 8 dereferenceable(40) %0) #7 comdat align 2 {
  %2 = alloca ptr, align 8
  store ptr %0, ptr %2, align 8, !tbaa !42
  %3 = load ptr, ptr %2, align 8
  %4 = getelementptr inbounds nuw %class.V3NumberData, ptr %3, i32 0, i32 1
  %5 = load i32, ptr %4, align 8, !tbaa !44
  ret i32 %5
}

; Function Attrs: mustprogress nounwind uwtable
define linkonce_odr dso_local noundef zeroext i8 @_ZNK12V3NumberData4typeEv(ptr noundef nonnull align 8 dereferenceable(40) %0) #7 comdat align 2 {
  %2 = alloca ptr, align 8
  store ptr %0, ptr %2, align 8, !tbaa !42
  %3 = load ptr, ptr %2, align 8
  %4 = getelementptr inbounds nuw %class.V3NumberData, ptr %3, i32 0, i32 2
  %5 = load i8, ptr %4, align 4, !tbaa !45
  ret i8 %5
}

; Function Attrs: mustprogress uwtable
define linkonce_odr dso_local void @_ZN8V3NumberC2EPKS_i(ptr noundef nonnull align 8 dereferenceable(56) %0, ptr noundef %1, i32 noundef %2) unnamed_addr #4 comdat align 2 personality ptr @__gxx_personality_v0 {
  %4 = alloca ptr, align 8
  %5 = alloca ptr, align 8
  %6 = alloca i32, align 4
  %7 = alloca ptr, align 8
  %8 = alloca i32, align 4
  store ptr %0, ptr %4, align 8, !tbaa !4
  store ptr %1, ptr %5, align 8, !tbaa !4
  store i32 %2, ptr %6, align 4, !tbaa !33
  %9 = load ptr, ptr %4, align 8
  %10 = getelementptr inbounds nuw %class.V3Number, ptr %9, i32 0, i32 0
  call void @_ZN12V3NumberDataC2Ev(ptr noundef nonnull align 8 dereferenceable(40) %10)
  %11 = getelementptr inbounds nuw %class.V3Number, ptr %9, i32 0, i32 1
  store ptr null, ptr %11, align 8, !tbaa !11
  %12 = getelementptr inbounds nuw %class.V3Number, ptr %9, i32 0, i32 2
  store ptr null, ptr %12, align 8, !tbaa !19
  %13 = load i32, ptr %6, align 4, !tbaa !33
  invoke void @_ZN8V3Number4initEP7AstNodeib(ptr noundef nonnull align 8 dereferenceable(56) %9, ptr noundef null, i32 noundef %13, i1 noundef zeroext true)
          to label %14 unwind label %19

14:                                               ; preds = %3
  %15 = load ptr, ptr %5, align 8, !tbaa !4
  %16 = invoke noundef ptr @_ZNK8V3Number8filelineEv(ptr noundef nonnull align 8 dereferenceable(56) %15)
          to label %17 unwind label %19

17:                                               ; preds = %14
  %18 = getelementptr inbounds nuw %class.V3Number, ptr %9, i32 0, i32 2
  store ptr %16, ptr %18, align 8, !tbaa !19
  ret void

19:                                               ; preds = %14, %3
  %20 = landingpad { ptr, i32 }
          cleanup
  %21 = extractvalue { ptr, i32 } %20, 0
  store ptr %21, ptr %7, align 8
  %22 = extractvalue { ptr, i32 } %20, 1
  store i32 %22, ptr %8, align 4
  call void @_ZN12V3NumberDataD2Ev(ptr noundef nonnull align 8 dereferenceable(40) %10) #3
  br label %23

23:                                               ; preds = %19
  %24 = load ptr, ptr %7, align 8
  %25 = load i32, ptr %8, align 4
  %26 = insertvalue { ptr, i32 } poison, ptr %24, 0
  %27 = insertvalue { ptr, i32 } %26, i32 %25, 1
  resume { ptr, i32 } %27
}

; Function Attrs: mustprogress nounwind uwtable
define linkonce_odr dso_local noundef i32 @_ZNK8V3Number5widthEv(ptr noundef nonnull align 8 dereferenceable(56) %0) #7 comdat align 2 {
  %2 = alloca ptr, align 8
  store ptr %0, ptr %2, align 8, !tbaa !4
  %3 = load ptr, ptr %2, align 8
  %4 = getelementptr inbounds nuw %class.V3Number, ptr %3, i32 0, i32 0
  %5 = call noundef i32 @_ZNK12V3NumberData5widthEv(ptr noundef nonnull align 8 dereferenceable(40) %4)
  ret i32 %5
}

; Function Attrs: mustprogress nounwind uwtable
define linkonce_odr dso_local noundef zeroext i8 @_ZNK8V3Number8dataTypeEv(ptr noundef nonnull align 8 dereferenceable(56) %0) #7 comdat align 2 {
  %2 = alloca ptr, align 8
  store ptr %0, ptr %2, align 8, !tbaa !4
  %3 = load ptr, ptr %2, align 8
  %4 = getelementptr inbounds nuw %class.V3Number, ptr %3, i32 0, i32 0
  %5 = call noundef zeroext i8 @_ZNK12V3NumberData4typeEv(ptr noundef nonnull align 8 dereferenceable(40) %4)
  ret i8 %5
}

; Function Attrs: mustprogress nounwind uwtable
define linkonce_odr dso_local void @_ZN11V3ErrorCodeC2ENS_2enE(ptr noundef nonnull align 1 dereferenceable(1) %0, i8 noundef zeroext %1) unnamed_addr #7 comdat align 2 {
  %3 = alloca ptr, align 8
  %4 = alloca i8, align 1
  store ptr %0, ptr %3, align 8, !tbaa !123
  store i8 %1, ptr %4, align 1, !tbaa !125
  %5 = load ptr, ptr %3, align 8
  %6 = getelementptr inbounds nuw %class.V3ErrorCode, ptr %5, i32 0, i32 0
  %7 = load i8, ptr %4, align 1, !tbaa !125
  store i8 %7, ptr %6, align 1, !tbaa !127
  ret void
}

; Function Attrs: mustprogress uwtable
define dso_local noundef nonnull align 8 dereferenceable(56) ptr @_ZN8V3Number5opSubERKS_S1_(ptr noundef nonnull align 8 dereferenceable(56) %0, ptr noundef nonnull align 8 dereferenceable(56) %1, ptr noundef nonnull align 8 dereferenceable(56) %2) #4 align 2 personality ptr @__gxx_personality_v0 {
  %4 = alloca ptr, align 8
  %5 = alloca ptr, align 8
  %6 = alloca ptr, align 8
  %7 = alloca ptr, align 8
  %8 = alloca %class.V3ErrorCode, align 1
  %9 = alloca %class.V3ErrorCode, align 1
  %10 = alloca %class.V3ErrorCode, align 1
  %11 = alloca %class.V3Number, align 8
  %12 = alloca ptr, align 8
  %13 = alloca i32, align 4
  store ptr %0, ptr %5, align 8, !tbaa !4
  store ptr %1, ptr %6, align 8, !tbaa !4
  store ptr %2, ptr %7, align 8, !tbaa !4
  %14 = load ptr, ptr %5, align 8
  br label %15

15:                                               ; preds = %3
  %16 = load ptr, ptr %6, align 8, !tbaa !4
  %17 = icmp ne ptr %14, %16
  br i1 %17, label %18, label %21

18:                                               ; preds = %15
  %19 = load ptr, ptr %7, align 8, !tbaa !4
  %20 = icmp ne ptr %14, %19
  br label %21

21:                                               ; preds = %18, %15
  %22 = phi i1 [ false, %15 ], [ %20, %18 ]
  %23 = xor i1 %22, true
  %24 = xor i1 %23, true
  %25 = xor i1 %24, true
  %26 = zext i1 %25 to i64
  %27 = call i64 @llvm.expect.i64(i64 %26, i64 0)
  %28 = icmp ne i64 %27, 0
  br i1 %28, label %29, label %35

29:                                               ; preds = %21
  call void @_ZN11V3ErrorCodeC2ENS_2enE(ptr noundef nonnull align 1 dereferenceable(1) %8, i8 noundef zeroext 4)
  %30 = getelementptr inbounds nuw %class.V3ErrorCode, ptr %8, i32 0, i32 0
  %31 = load i8, ptr %30, align 1
  %32 = call noundef nonnull align 8 dereferenceable(112) ptr @_ZN7V3Error19v3errorPrepFileLineB5cxx11E11V3ErrorCodePKci(i8 %31, ptr noundef @.str.15, i32 noundef 1908)
  %33 = call noundef nonnull align 8 dereferenceable(112) ptr @_ZN7V3Error10v3errorStrB5cxx11Ev()
  %34 = call noundef nonnull align 8 dereferenceable(8) ptr @_ZStlsISt11char_traitsIcEERSt13basic_ostreamIcT_ES5_PKc(ptr noundef nonnull align 8 dereferenceable(8) %33, ptr noundef @.str.51)
  call void @_ZNK8V3Number15v3errorEndFatalERKNSt7__cxx1119basic_ostringstreamIcSt11char_traitsIcESaIcEEE(ptr noundef nonnull align 8 dereferenceable(56) %14, ptr noundef nonnull align 8 dereferenceable(112) %34) #25
  unreachable

35:                                               ; preds = %21
  br label %36

36:                                               ; preds = %35
  br label %37

37:                                               ; preds = %36
  %38 = load ptr, ptr %6, align 8, !tbaa !4
  %39 = call noundef zeroext i8 @_ZNK8V3Number8dataTypeEv(ptr noundef nonnull align 8 dereferenceable(56) %38)
  %40 = icmp eq i8 %39, 1
  %41 = xor i1 %40, true
  %42 = xor i1 %41, true
  %43 = xor i1 %42, true
  %44 = zext i1 %43 to i64
  %45 = call i64 @llvm.expect.i64(i64 %44, i64 0)
  %46 = icmp ne i64 %45, 0
  br i1 %46, label %47, label %56

47:                                               ; preds = %37
  call void @_ZN11V3ErrorCodeC2ENS_2enE(ptr noundef nonnull align 1 dereferenceable(1) %9, i8 noundef zeroext 4)
  %48 = getelementptr inbounds nuw %class.V3ErrorCode, ptr %9, i32 0, i32 0
  %49 = load i8, ptr %48, align 1
  %50 = call noundef nonnull align 8 dereferenceable(112) ptr @_ZN7V3Error19v3errorPrepFileLineB5cxx11E11V3ErrorCodePKci(i8 %49, ptr noundef @.str.15, i32 noundef 1909)
  %51 = call noundef nonnull align 8 dereferenceable(112) ptr @_ZN7V3Error10v3errorStrB5cxx11Ev()
  %52 = call noundef nonnull align 8 dereferenceable(8) ptr @_ZStlsISt11char_traitsIcEERSt13basic_ostreamIcT_ES5_PKc(ptr noundef nonnull align 8 dereferenceable(8) %51, ptr noundef @.str.52)
  %53 = load ptr, ptr %6, align 8, !tbaa !4
  %54 = call noundef nonnull align 8 dereferenceable(8) ptr @_ZlsRSoRK8V3Number(ptr noundef nonnull align 8 dereferenceable(8) %52, ptr noundef nonnull align 8 dereferenceable(56) %53)
  %55 = call noundef nonnull align 8 dereferenceable(8) ptr @_ZStlsISt11char_traitsIcEERSt13basic_ostreamIcT_ES5_c(ptr noundef nonnull align 8 dereferenceable(8) %54, i8 noundef signext 34)
  call void @_ZNK8V3Number15v3errorEndFatalERKNSt7__cxx1119basic_ostringstreamIcSt11char_traitsIcESaIcEEE(ptr noundef nonnull align 8 dereferenceable(56) %14, ptr noundef nonnull align 8 dereferenceable(112) %55) #25
  unreachable

56:                                               ; preds = %37
  br label %57

57:                                               ; preds = %56
  br label %58

58:                                               ; preds = %57
  %59 = load ptr, ptr %7, align 8, !tbaa !4
  %60 = call noundef zeroext i8 @_ZNK8V3Number8dataTypeEv(ptr noundef nonnull align 8 dereferenceable(56) %59)
  %61 = icmp eq i8 %60, 1
  %62 = xor i1 %61, true
  %63 = xor i1 %62, true
  %64 = xor i1 %63, true
  %65 = zext i1 %64 to i64
  %66 = call i64 @llvm.expect.i64(i64 %65, i64 0)
  %67 = icmp ne i64 %66, 0
  br i1 %67, label %68, label %77

68:                                               ; preds = %58
  call void @_ZN11V3ErrorCodeC2ENS_2enE(ptr noundef nonnull align 1 dereferenceable(1) %10, i8 noundef zeroext 4)
  %69 = getelementptr inbounds nuw %class.V3ErrorCode, ptr %10, i32 0, i32 0
  %70 = load i8, ptr %69, align 1
  %71 = call noundef nonnull align 8 dereferenceable(112) ptr @_ZN7V3Error19v3errorPrepFileLineB5cxx11E11V3ErrorCodePKci(i8 %70, ptr noundef @.str.15, i32 noundef 1909)
  %72 = call noundef nonnull align 8 dereferenceable(112) ptr @_ZN7V3Error10v3errorStrB5cxx11Ev()
  %73 = call noundef nonnull align 8 dereferenceable(8) ptr @_ZStlsISt11char_traitsIcEERSt13basic_ostreamIcT_ES5_PKc(ptr noundef nonnull align 8 dereferenceable(8) %72, ptr noundef @.str.52)
  %74 = load ptr, ptr %7, align 8, !tbaa !4
  %75 = call noundef nonnull align 8 dereferenceable(8) ptr @_ZlsRSoRK8V3Number(ptr noundef nonnull align 8 dereferenceable(8) %73, ptr noundef nonnull align 8 dereferenceable(56) %74)
  %76 = call noundef nonnull align 8 dereferenceable(8) ptr @_ZStlsISt11char_traitsIcEERSt13basic_ostreamIcT_ES5_c(ptr noundef nonnull align 8 dereferenceable(8) %75, i8 noundef signext 34)
  call void @_ZNK8V3Number15v3errorEndFatalERKNSt7__cxx1119basic_ostringstreamIcSt11char_traitsIcESaIcEEE(ptr noundef nonnull align 8 dereferenceable(56) %14, ptr noundef nonnull align 8 dereferenceable(112) %76) #25
  unreachable

77:                                               ; preds = %58
  br label %78

78:                                               ; preds = %77
  %79 = load ptr, ptr %6, align 8, !tbaa !4
  %80 = call noundef zeroext i1 @_ZNK8V3Number11isFourStateEv(ptr noundef nonnull align 8 dereferenceable(56) %79)
  br i1 %80, label %84, label %81

81:                                               ; preds = %78
  %82 = load ptr, ptr %7, align 8, !tbaa !4
  %83 = call noundef zeroext i1 @_ZNK8V3Number11isFourStateEv(ptr noundef nonnull align 8 dereferenceable(56) %82)
  br i1 %83, label %84, label %86

84:                                               ; preds = %81, %78
  %85 = call noundef nonnull align 8 dereferenceable(56) ptr @_ZN8V3Number11setAllBitsXEv(ptr noundef nonnull align 8 dereferenceable(56) %14)
  store ptr %85, ptr %4, align 8
  br label %99

86:                                               ; preds = %81
  call void @llvm.lifetime.start.p0(i64 56, ptr %11) #3
  %87 = load ptr, ptr %7, align 8, !tbaa !4
  %88 = call noundef i32 @_ZNK8V3Number5widthEv(ptr noundef nonnull align 8 dereferenceable(56) %14)
  call void @_ZN8V3NumberC2EPKS_i(ptr noundef nonnull align 8 dereferenceable(56) %11, ptr noundef %87, i32 noundef %88)
  %89 = load ptr, ptr %7, align 8, !tbaa !4
  %90 = invoke noundef nonnull align 8 dereferenceable(56) ptr @_ZN8V3Number8opNegateERKS_(ptr noundef nonnull align 8 dereferenceable(56) %11, ptr noundef nonnull align 8 dereferenceable(56) %89)
          to label %91 unwind label %95

91:                                               ; preds = %86
  %92 = load ptr, ptr %6, align 8, !tbaa !4
  %93 = invoke noundef nonnull align 8 dereferenceable(56) ptr @_ZN8V3Number5opAddERKS_S1_(ptr noundef nonnull align 8 dereferenceable(56) %14, ptr noundef nonnull align 8 dereferenceable(56) %92, ptr noundef nonnull align 8 dereferenceable(56) %11)
          to label %94 unwind label %95

94:                                               ; preds = %91
  store ptr %93, ptr %4, align 8
  call void @_ZN8V3NumberD2Ev(ptr noundef nonnull align 8 dereferenceable(56) %11) #3
  call void @llvm.lifetime.end.p0(i64 56, ptr %11) #3
  br label %99

95:                                               ; preds = %91, %86
  %96 = landingpad { ptr, i32 }
          cleanup
  %97 = extractvalue { ptr, i32 } %96, 0
  store ptr %97, ptr %12, align 8
  %98 = extractvalue { ptr, i32 } %96, 1
  store i32 %98, ptr %13, align 4
  call void @_ZN8V3NumberD2Ev(ptr noundef nonnull align 8 dereferenceable(56) %11) #3
  call void @llvm.lifetime.end.p0(i64 56, ptr %11) #3
  br label %101

99:                                               ; preds = %94, %84
  %100 = load ptr, ptr %4, align 8
  ret ptr %100

101:                                              ; preds = %95
  %102 = load ptr, ptr %12, align 8
  %103 = load i32, ptr %13, align 4
  %104 = insertvalue { ptr, i32 } poison, ptr %102, 0
  %105 = insertvalue { ptr, i32 } %104, i32 %103, 1
  resume { ptr, i32 } %105
}