; Function Attrs: mustprogress uwtable
define dso_local noundef nonnull align 8 dereferenceable(56) ptr @_ZN8V3Number5opSubERKS_S1_(ptr noundef nonnull returned align 8 dereferenceable(56) %0, ptr noundef nonnull align 8 dereferenceable(56) %1, ptr noundef nonnull align 8 dereferenceable(56) %2) local_unnamed_addr #3 align 2 personality ptr @__gxx_personality_v0 {
  %4 = alloca %class.V3Number, align 8
  %5 = icmp eq ptr %0, %1
  %6 = icmp eq ptr %0, %2
  %.not15 = or i1 %5, %6
  br i1 %.not15, label %7, label %11, !prof !134

7:                                                ; preds = %3
  %8 = tail call noundef nonnull align 8 dereferenceable(112) ptr @_ZN7V3Error19v3errorPrepFileLineB5cxx11E11V3ErrorCodePKci(i8 4, ptr noundef nonnull @.str.15, i32 noundef 1908)
  %9 = tail call noundef nonnull align 8 dereferenceable(112) ptr @_ZN7V3Error10v3errorStrB5cxx11Ev()
  %10 = tail call noundef nonnull align 8 dereferenceable(8) ptr @_ZStlsISt11char_traitsIcEERSt13basic_ostreamIcT_ES5_PKc(ptr noundef nonnull align 8 dereferenceable(8) %9, ptr noundef nonnull @.str.51)
  tail call void @_ZNK8V3Number15v3errorEndFatalERKNSt7__cxx1119basic_ostringstreamIcSt11char_traitsIcESaIcEEE(ptr noundef nonnull align 8 dereferenceable(56) %0, ptr noundef nonnull align 8 dereferenceable(112) %10) #34
  unreachable

11:                                               ; preds = %3
  %12 = getelementptr inbounds nuw i8, ptr %1, i64 36
  %13 = load i8, ptr %12, align 4, !tbaa !40
  %.not = icmp eq i8 %13, 1
  br i1 %.not, label %20, label %14, !prof !41

14:                                               ; preds = %11
  %15 = tail call noundef nonnull align 8 dereferenceable(112) ptr @_ZN7V3Error19v3errorPrepFileLineB5cxx11E11V3ErrorCodePKci(i8 4, ptr noundef nonnull @.str.15, i32 noundef 1909)
  %16 = tail call noundef nonnull align 8 dereferenceable(112) ptr @_ZN7V3Error10v3errorStrB5cxx11Ev()
  %17 = tail call noundef nonnull align 8 dereferenceable(8) ptr @_ZStlsISt11char_traitsIcEERSt13basic_ostreamIcT_ES5_PKc(ptr noundef nonnull align 8 dereferenceable(8) %16, ptr noundef nonnull @.str.52)
  %18 = tail call noundef nonnull align 8 dereferenceable(8) ptr @_ZlsRSoRK8V3Number(ptr noundef nonnull align 8 dereferenceable(8) %17, ptr noundef nonnull align 8 dereferenceable(56) %1)
  %19 = tail call noundef nonnull align 8 dereferenceable(8) ptr @_ZStlsISt11char_traitsIcEERSt13basic_ostreamIcT_ES5_c(ptr noundef nonnull align 8 dereferenceable(8) %18, i8 noundef signext 34)
  tail call void @_ZNK8V3Number15v3errorEndFatalERKNSt7__cxx1119basic_ostringstreamIcSt11char_traitsIcESaIcEEE(ptr noundef nonnull align 8 dereferenceable(56) %0, ptr noundef nonnull align 8 dereferenceable(112) %19) #34
  unreachable

20:                                               ; preds = %11
  %21 = getelementptr inbounds nuw i8, ptr %2, i64 36
  %22 = load i8, ptr %21, align 4, !tbaa !40
  %.not16 = icmp eq i8 %22, 1
  br i1 %.not16, label %29, label %23, !prof !41

23:                                               ; preds = %20
  %24 = tail call noundef nonnull align 8 dereferenceable(112) ptr @_ZN7V3Error19v3errorPrepFileLineB5cxx11E11V3ErrorCodePKci(i8 4, ptr noundef nonnull @.str.15, i32 noundef 1909)
  %25 = tail call noundef nonnull align 8 dereferenceable(112) ptr @_ZN7V3Error10v3errorStrB5cxx11Ev()
  %26 = tail call noundef nonnull align 8 dereferenceable(8) ptr @_ZStlsISt11char_traitsIcEERSt13basic_ostreamIcT_ES5_PKc(ptr noundef nonnull align 8 dereferenceable(8) %25, ptr noundef nonnull @.str.52)
  %27 = tail call noundef nonnull align 8 dereferenceable(8) ptr @_ZlsRSoRK8V3Number(ptr noundef nonnull align 8 dereferenceable(8) %26, ptr noundef nonnull align 8 dereferenceable(56) %2)
  %28 = tail call noundef nonnull align 8 dereferenceable(8) ptr @_ZStlsISt11char_traitsIcEERSt13basic_ostreamIcT_ES5_c(ptr noundef nonnull align 8 dereferenceable(8) %27, i8 noundef signext 34)
  tail call void @_ZNK8V3Number15v3errorEndFatalERKNSt7__cxx1119basic_ostringstreamIcSt11char_traitsIcESaIcEEE(ptr noundef nonnull align 8 dereferenceable(56) %0, ptr noundef nonnull align 8 dereferenceable(112) %28) #34
  unreachable

29:                                               ; preds = %20
  %30 = tail call noundef zeroext i1 @_ZNK8V3Number11isFourStateEv(ptr noundef nonnull align 8 dereferenceable(56) %1)
  br i1 %30, label %33, label %31

31:                                               ; preds = %29
  %32 = tail call noundef zeroext i1 @_ZNK8V3Number11isFourStateEv(ptr noundef nonnull align 8 dereferenceable(56) %2)
  br i1 %32, label %33, label %35

33:                                               ; preds = %31, %29
  %34 = tail call noundef nonnull align 8 dereferenceable(56) ptr @_ZN8V3Number11setAllBitsXEv(ptr noundef nonnull align 8 dereferenceable(56) %0)
  br label %77

35:                                               ; preds = %31
  call void @llvm.lifetime.start.p0(i64 56, ptr nonnull %4) #32
  %36 = getelementptr inbounds nuw i8, ptr %0, i64 32
  %37 = load i32, ptr %36, align 8, !tbaa !39
  %38 = getelementptr inbounds nuw i8, ptr %4, i64 32
  store i32 0, ptr %38, align 8, !tbaa !39
  %39 = getelementptr inbounds nuw i8, ptr %4, i64 36
  store i8 0, ptr %39, align 4, !tbaa !40
  %40 = getelementptr inbounds nuw i8, ptr %4, i64 37
  store i8 0, ptr %40, align 1
  %41 = getelementptr inbounds nuw i8, ptr %4, i64 40
  call void @llvm.memset.p0.i64(ptr noundef nonnull align 8 dereferenceable(16) %41, i8 0, i64 16, i1 false)
  invoke void @_ZN8V3Number4initEP7AstNodeib(ptr noundef nonnull align 8 dereferenceable(56) %4, ptr noundef null, i32 noundef %37, i1 noundef zeroext true)
          to label %_ZN8V3NumberC2EPKS_i.exit unwind label %42

common.resume:                                    ; preds = %75, %42
  %common.resume.op = phi { ptr, i32 } [ %43, %42 ], [ %76, %75 ]
  resume { ptr, i32 } %common.resume.op

42:                                               ; preds = %35
  %43 = landingpad { ptr, i32 }
          cleanup
  call void @_ZN12V3NumberDataD2Ev(ptr noundef nonnull align 8 dereferenceable(56) %4) #32
  br label %common.resume

_ZN8V3NumberC2EPKS_i.exit:                        ; preds = %35
  %44 = getelementptr inbounds nuw i8, ptr %4, i64 48
  %45 = getelementptr inbounds nuw i8, ptr %2, i64 48
  %46 = load ptr, ptr %45, align 8, !tbaa !35
  store ptr %46, ptr %44, align 8, !tbaa !35
  %47 = invoke noundef nonnull align 8 dereferenceable(56) ptr @_ZN8V3Number8opNegateERKS_(ptr noundef nonnull align 8 dereferenceable(56) %4, ptr noundef nonnull align 8 dereferenceable(56) %2)
          to label %48 unwind label %75

48:                                               ; preds = %_ZN8V3NumberC2EPKS_i.exit
  %49 = invoke noundef nonnull align 8 dereferenceable(56) ptr @_ZN8V3Number5opAddERKS_S1_(ptr noundef nonnull align 8 dereferenceable(56) %0, ptr noundef nonnull align 8 dereferenceable(56) %1, ptr noundef nonnull align 8 dereferenceable(56) %4)
          to label %50 unwind label %75

50:                                               ; preds = %48
  %51 = load i8, ptr %39, align 4, !tbaa !40
  %52 = icmp eq i8 %51, 3
  br i1 %52, label %53, label %62

53:                                               ; preds = %50
  %54 = load ptr, ptr %4, align 8, !tbaa !26
  %55 = getelementptr inbounds nuw i8, ptr %4, i64 16
  %56 = icmp eq ptr %54, %55
  br i1 %56, label %_ZNKSt7__cxx1112basic_stringIcSt11char_traitsIcESaIcEE11_M_is_localEv.exit.thread.i.i.i.i.i.i, label %_ZNKSt7__cxx1112basic_stringIcSt11char_traitsIcESaIcEE11_M_is_localEv.exit.i.i.i.i.i.i

_ZNKSt7__cxx1112basic_stringIcSt11char_traitsIcESaIcEE11_M_is_localEv.exit.thread.i.i.i.i.i.i: ; preds = %53
  %57 = getelementptr inbounds nuw i8, ptr %4, i64 8
  %58 = load i64, ptr %57, align 8, !tbaa !17
  %59 = icmp ult i64 %58, 16
  call void @llvm.assume(i1 %59)
  br label %_ZN8V3NumberD2Ev.exit

_ZNKSt7__cxx1112basic_stringIcSt11char_traitsIcESaIcEE11_M_is_localEv.exit.i.i.i.i.i.i: ; preds = %53
  %60 = load i64, ptr %55, align 8, !tbaa !20
  %61 = add i64 %60, 1
  call void @_ZdlPvm(ptr noundef %54, i64 noundef %61) #33
  br label %_ZN8V3NumberD2Ev.exit

62:                                               ; preds = %50
  %63 = load i32, ptr %38, align 8, !tbaa !39
  %64 = icmp sgt i32 %63, 128
  %65 = icmp eq i8 %51, 1
  %66 = and i1 %65, %64
  br i1 %66, label %67, label %_ZN8V3NumberD2Ev.exit

67:                                               ; preds = %62
  %68 = load ptr, ptr %4, align 8, !tbaa !56
  %.not.i.i.i.i.i.i.i = icmp eq ptr %68, null
  br i1 %.not.i.i.i.i.i.i.i, label %_ZN8V3NumberD2Ev.exit, label %69

69:                                               ; preds = %67
  %70 = getelementptr inbounds nuw i8, ptr %4, i64 16
  %71 = load ptr, ptr %70, align 8, !tbaa !59
  %72 = ptrtoint ptr %71 to i64
  %73 = ptrtoint ptr %68 to i64
  %74 = sub i64 %72, %73
  call void @_ZdlPvm(ptr noundef nonnull %68, i64 noundef %74) #33
  br label %_ZN8V3NumberD2Ev.exit

_ZN8V3NumberD2Ev.exit:                            ; preds = %_ZNKSt7__cxx1112basic_stringIcSt11char_traitsIcESaIcEE11_M_is_localEv.exit.thread.i.i.i.i.i.i, %_ZNKSt7__cxx1112basic_stringIcSt11char_traitsIcESaIcEE11_M_is_localEv.exit.i.i.i.i.i.i, %62, %67, %69
  call void @llvm.lifetime.end.p0(i64 56, ptr nonnull %4) #32
  br label %77

75:                                               ; preds = %48, %_ZN8V3NumberC2EPKS_i.exit
  %76 = landingpad { ptr, i32 }
          cleanup
  call void @_ZN8V3NumberD2Ev(ptr noundef nonnull align 8 dereferenceable(56) %4) #32
  call void @llvm.lifetime.end.p0(i64 56, ptr nonnull %4) #32
  br label %common.resume

77:                                               ; preds = %_ZN8V3NumberD2Ev.exit, %33
  ret ptr %0
}